; Function Attrs: nounwind uwtable
define dso_local { ptr, ptr } @gen_import_meta(ptr %0, ptr %1, ptr %2, ptr readnone captures(none) %3) local_unnamed_addr #1 {
  %5 = getelementptr inbounds nuw i8, ptr %0, i64 40
  %6 = getelementptr inbounds nuw i8, ptr %2, i64 40
  %7 = load i64, ptr %6, align 8
  %8 = getelementptr inbounds nuw i8, ptr %2, i64 48
  %9 = load ptr, ptr %8, align 8
  %10 = tail call { i64, ptr } @jv_copy(i64 %7, ptr %9) #17
  %11 = extractvalue { i64, ptr } %10, 0
  %12 = extractvalue { i64, ptr } %10, 1
  %13 = load i64, ptr %5, align 8
  %14 = getelementptr inbounds nuw i8, ptr %0, i64 48
  %15 = load ptr, ptr %14, align 8
  %16 = tail call { i64, ptr } @jv_object_merge(i64 %11, ptr %12, i64 %13, ptr %15) #17
  %17 = extractvalue { i64, ptr } %16, 0
  %18 = extractvalue { i64, ptr } %16, 1
  store i64 %17, ptr %5, align 8
  store ptr %18, ptr %14, align 8, !tbaa !29
  br label %.lr.ph.i

.lr.ph.i:                                         ; preds = %4, %.lr.ph.i
  %.05.i = phi ptr [ %19, %.lr.ph.i ], [ %2, %4 ]
  %19 = load ptr, ptr %.05.i, align 8, !tbaa !22
  tail call fastcc void @inst_free(ptr noundef nonnull %.05.i)
  %.not.i = icmp eq ptr %19, null
  br i1 %.not.i, label %block_free.exit, label %.lr.ph.i, !llvm.loop !35

block_free.exit:                                  ; preds = %.lr.ph.i
  %.fca.0.insert = insertvalue { ptr, ptr } poison, ptr %0, 0
  %.fca.1.insert = insertvalue { ptr, ptr } %.fca.0.insert, ptr %1, 1
  ret { ptr, ptr } %.fca.1.insert
}